; Function Attrs: mustprogress nounwind uwtable
define noundef range(i32 -1, 162) i32 @_ZN7glslang10TPpContext14scanHeaderNameEPNS_8TPpTokenEc(ptr nocapture noundef nonnull readonly align 8 dereferenceable(969) %0, ptr noundef %1, i8 noundef signext %2) local_unnamed_addr #0 align 2 {
  %4 = getelementptr inbounds i8, ptr %0, i64 392
  %5 = load ptr, ptr %4, align 8
  %6 = getelementptr inbounds i8, ptr %0, i64 400
  %7 = load ptr, ptr %6, align 8
  %8 = icmp eq ptr %5, %7
  br i1 %8, label %.loopexit, label %9

9:                                                ; preds = %3
  %10 = getelementptr inbounds i8, ptr %1, i64 40
  store i8 0, ptr %10, align 8
  %11 = load ptr, ptr %6, align 8
  %12 = getelementptr inbounds i8, ptr %11, i64 -8
  %13 = load ptr, ptr %12, align 8
  %14 = load ptr, ptr %13, align 8
  %15 = getelementptr inbounds i8, ptr %14, i64 24
  %16 = load ptr, ptr %15, align 8
  %17 = tail call noundef i32 %16(ptr noundef nonnull align 8 dereferenceable(24) %13) #17
  %18 = sext i8 %2 to i32
  %19 = icmp eq i32 %17, %18
  br i1 %19, label %.critedge, label %.lr.ph

._crit_edge:                                      ; preds = %37
  %20 = sext i32 %.1 to i64
  %21 = getelementptr inbounds [1025 x i8], ptr %10, i64 0, i64 %20
  store i8 0, ptr %21, align 1
  br i1 %.115, label %22, label %.loopexit

22:                                               ; preds = %._crit_edge
  %23 = getelementptr inbounds i8, ptr %0, i64 256
  %24 = load ptr, ptr %23, align 8
  %25 = load ptr, ptr %24, align 8
  %26 = getelementptr inbounds i8, ptr %25, i64 360
  %27 = load ptr, ptr %26, align 8
  tail call void (ptr, ptr, ptr, ptr, ptr, ...) %27(ptr noundef nonnull align 8 dereferenceable(1280) %24, ptr noundef nonnull align 8 dereferenceable(24) %1, ptr noundef nonnull @.str.71, ptr noundef nonnull @.str.2, ptr noundef nonnull @.str.2) #17
  br label %.loopexit

.lr.ph:                                           ; preds = %9, %37
  %28 = phi i32 [ %44, %37 ], [ %17, %9 ]
  %.01320 = phi i32 [ %.1, %37 ], [ 0, %9 ]
  %.01419 = phi i1 [ %.115, %37 ], [ false, %9 ]
  %29 = icmp eq i32 %28, -1
  br i1 %29, label %.loopexit, label %30

30:                                               ; preds = %.lr.ph
  %31 = icmp slt i32 %.01320, 1024
  br i1 %31, label %32, label %37

32:                                               ; preds = %30
  %33 = trunc i32 %28 to i8
  %34 = add nsw i32 %.01320, 1
  %35 = sext i32 %.01320 to i64
  %36 = getelementptr inbounds [1025 x i8], ptr %10, i64 0, i64 %35
  store i8 %33, ptr %36, align 1
  br label %37

37:                                               ; preds = %30, %32
  %.115 = phi i1 [ %.01419, %32 ], [ true, %30 ]
  %.1 = phi i32 [ %34, %32 ], [ %.01320, %30 ]
  %38 = load ptr, ptr %6, align 8
  %39 = getelementptr inbounds i8, ptr %38, i64 -8
  %40 = load ptr, ptr %39, align 8
  %41 = load ptr, ptr %40, align 8
  %42 = getelementptr inbounds i8, ptr %41, i64 24
  %43 = load ptr, ptr %42, align 8
  %44 = tail call noundef i32 %43(ptr noundef nonnull align 8 dereferenceable(24) %40) #17
  %45 = icmp eq i32 %44, %18
  br i1 %45, label %._crit_edge, label %.lr.ph, !llvm.loop !30

.critedge:                                        ; preds = %9
  store i8 0, ptr %10, align 1
  br label %.loopexit

.loopexit:                                        ; preds = %.lr.ph, %.critedge, %._crit_edge, %22, %3
  %.0 = phi i32 [ -1, %3 ], [ 161, %22 ], [ 161, %._crit_edge ], [ 161, %.critedge ], [ -1, %.lr.ph ]
  ret i32 %.0
}